target datalayout = "e-m:e-p270:32:32-p271:32:32-p272:64:64-i64:64-i128:128-f80:128-n8:16:32:64-S128"
target triple = "x86_64-pc-linux-gnu"

%"class.pybind11::object" = type { %"class.pybind11::handle" }
%"class.pybind11::handle" = type { ptr }
%"class.pybind11::module_" = type { %"class.pybind11::object" }

@.str = private unnamed_addr constant [5 x i8] c"core\00", align 1
@.str.3 = private unnamed_addr constant [4 x i8] c"nns\00", align 1

; Function Attrs: mustprogress ssp uwtable
define hidden void @_ZN6open3d4core24pybind_core_declarationsERN8pybind117module_E(ptr noundef nonnull align 8 dereferenceable(8) %0) #4 personality ptr @__gxx_personality_v0 {
  %2 = alloca ptr, align 8
  %3 = alloca %"class.pybind11::module_", align 8
  %4 = alloca ptr, align 8
  %5 = alloca i32, align 4
  %6 = alloca %"class.pybind11::module_", align 8
  store ptr %0, ptr %2, align 8, !tbaa !125
  call void @llvm.lifetime.start.p0(i64 8, ptr %3) #25
  %7 = load ptr, ptr %2, align 8, !tbaa !125
  call void @_ZN8pybind117module_13def_submoduleEPKcS2_(ptr dead_on_unwind writable sret(%"class.pybind11::module_") align 8 %3, ptr noundef nonnull align 8 dereferenceable(8) %7, ptr noundef @.str, ptr noundef null)
  invoke void @_ZN6open3d4core30pybind_cuda_utils_declarationsERN8pybind117module_E(ptr noundef nonnull align 8 dereferenceable(8) %3)
          to label %8 unwind label %20

8:                                                ; preds = %1
  invoke void @_ZN6open3d4core29pybind_core_blob_declarationsERN8pybind117module_E(ptr noundef nonnull align 8 dereferenceable(8) %3)
          to label %9 unwind label %20

9:                                                ; preds = %8
  invoke void @_ZN6open3d4core30pybind_core_dtype_declarationsERN8pybind117module_E(ptr noundef nonnull align 8 dereferenceable(8) %3)
          to label %10 unwind label %20

10:                                               ; preds = %9
  invoke void @_ZN6open3d4core31pybind_core_device_declarationsERN8pybind117module_E(ptr noundef nonnull align 8 dereferenceable(8) %3)
          to label %11 unwind label %20

11:                                               ; preds = %10
  invoke void @_ZN6open3d4core36pybind_core_size_vector_declarationsERN8pybind117module_E(ptr noundef nonnull align 8 dereferenceable(8) %3)
          to label %12 unwind label %20

12:                                               ; preds = %11
  invoke void @_ZN6open3d4core31pybind_core_tensor_declarationsERN8pybind117module_E(ptr noundef nonnull align 8 dereferenceable(8) %3)
          to label %13 unwind label %20

13:                                               ; preds = %12
  invoke void @_ZN6open3d4core31pybind_core_kernel_declarationsERN8pybind117module_E(ptr noundef nonnull align 8 dereferenceable(8) %3)
          to label %14 unwind label %20

14:                                               ; preds = %13
  invoke void @_ZN6open3d4core32pybind_core_hashmap_declarationsERN8pybind117module_E(ptr noundef nonnull align 8 dereferenceable(8) %3)
          to label %15 unwind label %20

15:                                               ; preds = %14
  invoke void @_ZN6open3d4core32pybind_core_hashset_declarationsERN8pybind117module_E(ptr noundef nonnull align 8 dereferenceable(8) %3)
          to label %16 unwind label %20

16:                                               ; preds = %15
  invoke void @_ZN6open3d4core31pybind_core_scalar_declarationsERN8pybind117module_E(ptr noundef nonnull align 8 dereferenceable(8) %3)
          to label %17 unwind label %20

17:                                               ; preds = %16
  call void @llvm.lifetime.start.p0(i64 8, ptr %6) #25
  invoke void @_ZN8pybind117module_13def_submoduleEPKcS2_(ptr dead_on_unwind writable sret(%"class.pybind11::module_") align 8 %6, ptr noundef nonnull align 8 dereferenceable(8) %3, ptr noundef @.str.3, ptr noundef null)
          to label %18 unwind label %24

18:                                               ; preds = %17
  invoke void @_ZN6open3d4core3nns28pybind_core_nns_declarationsERN8pybind117module_E(ptr noundef nonnull align 8 dereferenceable(8) %6)
          to label %19 unwind label %28

19:                                               ; preds = %18
  call void @_ZN8pybind116objectD2Ev(ptr noundef nonnull align 8 dereferenceable(8) %6) #25
  call void @llvm.lifetime.end.p0(i64 8, ptr %6) #25
  call void @_ZN8pybind116objectD2Ev(ptr noundef nonnull align 8 dereferenceable(8) %3) #25
  call void @llvm.lifetime.end.p0(i64 8, ptr %3) #25
  ret void

20:                                               ; preds = %16, %15, %14, %13, %12, %11, %10, %9, %8, %1
  %21 = landingpad { ptr, i32 }
          cleanup
  %22 = extractvalue { ptr, i32 } %21, 0
  store ptr %22, ptr %4, align 8
  %23 = extractvalue { ptr, i32 } %21, 1
  store i32 %23, ptr %5, align 4
  br label %33

24:                                               ; preds = %17
  %25 = landingpad { ptr, i32 }
          cleanup
  %26 = extractvalue { ptr, i32 } %25, 0
  store ptr %26, ptr %4, align 8
  %27 = extractvalue { ptr, i32 } %25, 1
  store i32 %27, ptr %5, align 4
  br label %32

28:                                               ; preds = %18
  %29 = landingpad { ptr, i32 }
          cleanup
  %30 = extractvalue { ptr, i32 } %29, 0
  store ptr %30, ptr %4, align 8
  %31 = extractvalue { ptr, i32 } %29, 1
  store i32 %31, ptr %5, align 4
  call void @_ZN8pybind116objectD2Ev(ptr noundef nonnull align 8 dereferenceable(8) %6) #25
  br label %32

32:                                               ; preds = %28, %24
  call void @llvm.lifetime.end.p0(i64 8, ptr %6) #25
  br label %33

33:                                               ; preds = %32, %20
  call void @_ZN8pybind116objectD2Ev(ptr noundef nonnull align 8 dereferenceable(8) %3) #25
  call void @llvm.lifetime.end.p0(i64 8, ptr %3) #25
  br label %34

34:                                               ; preds = %33
  %35 = load ptr, ptr %4, align 8
  %36 = load i32, ptr %5, align 4
  %37 = insertvalue { ptr, i32 } poison, ptr %35, 0
  %38 = insertvalue { ptr, i32 } %37, i32 %36, 1
  resume { ptr, i32 } %38
}