; Function Attrs: mustprogress ssp uwtable
define hidden void @_ZN6open3d4core24pybind_core_declarationsERN8pybind117module_E(ptr noundef nonnull align 8 dereferenceable(8) %0) local_unnamed_addr #5 personality ptr @__gxx_personality_v0 {
  %2 = alloca %"class.pybind11::module_", align 8
  %3 = alloca %"class.pybind11::module_", align 8
  call void @llvm.lifetime.start.p0(i64 8, ptr nonnull %2) #28
  call void @_ZN8pybind117module_13def_submoduleEPKcS2_(ptr dead_on_unwind nonnull writable sret(%"class.pybind11::module_") align 8 %2, ptr noundef nonnull align 8 dereferenceable(8) %0, ptr noundef nonnull @.str, ptr noundef null)
  invoke void @_ZN6open3d4core30pybind_cuda_utils_declarationsERN8pybind117module_E(ptr noundef nonnull align 8 dereferenceable(8) %2)
          to label %4 unwind label %38

4:                                                ; preds = %1
  invoke void @_ZN6open3d4core29pybind_core_blob_declarationsERN8pybind117module_E(ptr noundef nonnull align 8 dereferenceable(8) %2)
          to label %5 unwind label %38

5:                                                ; preds = %4
  invoke void @_ZN6open3d4core30pybind_core_dtype_declarationsERN8pybind117module_E(ptr noundef nonnull align 8 dereferenceable(8) %2)
          to label %6 unwind label %38

6:                                                ; preds = %5
  invoke void @_ZN6open3d4core31pybind_core_device_declarationsERN8pybind117module_E(ptr noundef nonnull align 8 dereferenceable(8) %2)
          to label %7 unwind label %38

7:                                                ; preds = %6
  invoke void @_ZN6open3d4core36pybind_core_size_vector_declarationsERN8pybind117module_E(ptr noundef nonnull align 8 dereferenceable(8) %2)
          to label %8 unwind label %38

8:                                                ; preds = %7
  invoke void @_ZN6open3d4core31pybind_core_tensor_declarationsERN8pybind117module_E(ptr noundef nonnull align 8 dereferenceable(8) %2)
          to label %9 unwind label %38

9:                                                ; preds = %8
  invoke void @_ZN6open3d4core31pybind_core_kernel_declarationsERN8pybind117module_E(ptr noundef nonnull align 8 dereferenceable(8) %2)
          to label %10 unwind label %38

10:                                               ; preds = %9
  invoke void @_ZN6open3d4core32pybind_core_hashmap_declarationsERN8pybind117module_E(ptr noundef nonnull align 8 dereferenceable(8) %2)
          to label %11 unwind label %38

11:                                               ; preds = %10
  invoke void @_ZN6open3d4core32pybind_core_hashset_declarationsERN8pybind117module_E(ptr noundef nonnull align 8 dereferenceable(8) %2)
          to label %12 unwind label %38

12:                                               ; preds = %11
  invoke void @_ZN6open3d4core31pybind_core_scalar_declarationsERN8pybind117module_E(ptr noundef nonnull align 8 dereferenceable(8) %2)
          to label %13 unwind label %38

13:                                               ; preds = %12
  call void @llvm.lifetime.start.p0(i64 8, ptr nonnull %3) #28
  invoke void @_ZN8pybind117module_13def_submoduleEPKcS2_(ptr dead_on_unwind nonnull writable sret(%"class.pybind11::module_") align 8 %3, ptr noundef nonnull align 8 dereferenceable(8) %2, ptr noundef nonnull @.str.3, ptr noundef null)
          to label %14 unwind label %40

14:                                               ; preds = %13
  invoke void @_ZN6open3d4core3nns28pybind_core_nns_declarationsERN8pybind117module_E(ptr noundef nonnull align 8 dereferenceable(8) %3)
          to label %15 unwind label %42

15:                                               ; preds = %14
  %16 = load ptr, ptr %3, align 8, !tbaa !112
  %.not.i.i.i = icmp eq ptr %16, null
  br i1 %.not.i.i.i, label %_ZN8pybind116objectD2Ev.exit, label %17

17:                                               ; preds = %15
  %18 = load i64, ptr %16, align 8, !tbaa !111
  %19 = and i64 %18, 2147483648
  %.not2.i.i.i = icmp eq i64 %19, 0
  br i1 %.not2.i.i.i, label %20, label %_ZN8pybind116objectD2Ev.exit

20:                                               ; preds = %17
  %21 = add nsw i64 %18, -1
  store i64 %21, ptr %16, align 8, !tbaa !111
  %22 = icmp eq i64 %21, 0
  br i1 %22, label %23, label %_ZN8pybind116objectD2Ev.exit

23:                                               ; preds = %20
  invoke void @_Py_Dealloc(ptr noundef nonnull %16)
          to label %_ZN8pybind116objectD2Ev.exit unwind label %24

24:                                               ; preds = %23
  %25 = landingpad { ptr, i32 }
          catch ptr null
  %26 = extractvalue { ptr, i32 } %25, 0
  call void @__clang_call_terminate(ptr %26) #29
  unreachable

_ZN8pybind116objectD2Ev.exit:                     ; preds = %15, %17, %20, %23
  call void @llvm.lifetime.end.p0(i64 8, ptr nonnull %3) #28
  %27 = load ptr, ptr %2, align 8, !tbaa !112
  %.not.i.i.i6 = icmp eq ptr %27, null
  br i1 %.not.i.i.i6, label %_ZN8pybind116objectD2Ev.exit8, label %28

28:                                               ; preds = %_ZN8pybind116objectD2Ev.exit
  %29 = load i64, ptr %27, align 8, !tbaa !111
  %30 = and i64 %29, 2147483648
  %.not2.i.i.i7 = icmp eq i64 %30, 0
  br i1 %.not2.i.i.i7, label %31, label %_ZN8pybind116objectD2Ev.exit8

31:                                               ; preds = %28
  %32 = add nsw i64 %29, -1
  store i64 %32, ptr %27, align 8, !tbaa !111
  %33 = icmp eq i64 %32, 0
  br i1 %33, label %34, label %_ZN8pybind116objectD2Ev.exit8

34:                                               ; preds = %31
  invoke void @_Py_Dealloc(ptr noundef nonnull %27)
          to label %_ZN8pybind116objectD2Ev.exit8 unwind label %35

35:                                               ; preds = %34
  %36 = landingpad { ptr, i32 }
          catch ptr null
  %37 = extractvalue { ptr, i32 } %36, 0
  call void @__clang_call_terminate(ptr %37) #29
  unreachable

_ZN8pybind116objectD2Ev.exit8:                    ; preds = %_ZN8pybind116objectD2Ev.exit, %28, %31, %34
  call void @llvm.lifetime.end.p0(i64 8, ptr nonnull %2) #28
  ret void

38:                                               ; preds = %12, %11, %10, %9, %8, %7, %6, %5, %4, %1
  %39 = landingpad { ptr, i32 }
          cleanup
  br label %45

40:                                               ; preds = %13
  %41 = landingpad { ptr, i32 }
          cleanup
  br label %44

42:                                               ; preds = %14
  %43 = landingpad { ptr, i32 }
          cleanup
  call void @_ZN8pybind116objectD2Ev(ptr noundef nonnull align 8 dereferenceable(8) %3) #28
  br label %44

44:                                               ; preds = %42, %40
  %.pn = phi { ptr, i32 } [ %43, %42 ], [ %41, %40 ]
  call void @llvm.lifetime.end.p0(i64 8, ptr nonnull %3) #28
  br label %45

45:                                               ; preds = %44, %38
  %.pn.pn = phi { ptr, i32 } [ %.pn, %44 ], [ %39, %38 ]
  call void @_ZN8pybind116objectD2Ev(ptr noundef nonnull align 8 dereferenceable(8) %2) #28
  call void @llvm.lifetime.end.p0(i64 8, ptr nonnull %2) #28
  resume { ptr, i32 } %.pn.pn
}